target datalayout = "e-m:e-p270:32:32-p271:32:32-p272:64:64-i64:64-i128:128-f80:128-n8:16:32:64-S128"
target triple = "x86_64-pc-linux-gnu"

@mi_clock_diff = internal global i64 0, align 8

; Function Attrs: nounwind uwtable
define hidden i64 @_mi_clock_now() #0 {
  %1 = call i64 @_mi_prim_clock_now() #6
  ret i64 %1
}

; Function Attrs: nounwind uwtable
define hidden i64 @_mi_clock_start() #0 {
  %1 = alloca i64, align 8
  %2 = load i64, ptr @mi_clock_diff, align 8, !tbaa !8
  %3 = sitofp i64 %2 to double
  %4 = fcmp oeq double %3, 0.000000e+00
  br i1 %4, label %5, label %10

5:                                                ; preds = %0
  call void @llvm.lifetime.start.p0(i64 8, ptr %1) #7
  %6 = call i64 @_mi_clock_now() #6
  store i64 %6, ptr %1, align 8, !tbaa !8
  %7 = call i64 @_mi_clock_now() #6
  %8 = load i64, ptr %1, align 8, !tbaa !8
  %9 = sub nsw i64 %7, %8
  store i64 %9, ptr @mi_clock_diff, align 8, !tbaa !8
  call void @llvm.lifetime.end.p0(i64 8, ptr %1) #7
  br label %10

10:                                               ; preds = %5, %0
  %11 = call i64 @_mi_clock_now() #6
  ret i64 %11
}