; Function Attrs: nounwind uwtable
define hidden i64 @_mi_clock_start() local_unnamed_addr #2 {
  %1 = load i64, ptr @mi_clock_diff, align 8, !tbaa !25
  %2 = icmp eq i64 %1, 0
  br i1 %2, label %3, label %7

3:                                                ; preds = %0
  %4 = tail call i64 @_mi_prim_clock_now() #8
  %5 = tail call i64 @_mi_prim_clock_now() #8
  %6 = sub nsw i64 %5, %4
  store i64 %6, ptr @mi_clock_diff, align 8, !tbaa !25
  br label %7

7:                                                ; preds = %3, %0
  %8 = tail call i64 @_mi_prim_clock_now() #8
  ret i64 %8
}